; Function Attrs: nounwind uwtable
define ptr @l_Array_foldlMUnsafe_fold___at_Lean_Server_FileWorker_initializeWorker___spec__5(ptr readnone captures(none) %0, ptr noundef readonly captures(none) %1, i64 noundef %2, i64 noundef %3, ptr noundef %4) local_unnamed_addr #0 {
  %.not40 = icmp eq i64 %2, %3
  br i1 %.not40, label %._crit_edge, label %.lr.ph

.lr.ph:                                           ; preds = %5
  %6 = getelementptr inbounds nuw i8, ptr %1, i64 24
  br label %7

7:                                                ; preds = %.lr.ph, %l_Lean_RBNode_insert___at_Lean_Server_FileWorker_WorkerContext_modifyGetPartialHandler___spec__3.exit
  %.02042 = phi i64 [ %2, %.lr.ph ], [ %45, %l_Lean_RBNode_insert___at_Lean_Server_FileWorker_WorkerContext_modifyGetPartialHandler___spec__3.exit ]
  %.02241 = phi ptr [ %4, %.lr.ph ], [ %.123, %l_Lean_RBNode_insert___at_Lean_Server_FileWorker_WorkerContext_modifyGetPartialHandler___spec__3.exit ]
  %8 = getelementptr inbounds nuw [0 x ptr], ptr %6, i64 0, i64 %.02042
  %9 = load ptr, ptr %8, align 8, !tbaa !4
  %10 = ptrtoint ptr %9 to i64
  %11 = and i64 %10, 1
  %.not.i25 = icmp eq i64 %11, 0
  br i1 %.not.i25, label %12, label %lean_array_uget.exit

12:                                               ; preds = %7
  %.val.i.i = load i32, ptr %9, align 4, !tbaa !10
  %13 = icmp sgt i32 %.val.i.i, 0
  br i1 %13, label %14, label %16, !prof !13

14:                                               ; preds = %12
  %15 = add nuw i32 %.val.i.i, 1
  store i32 %15, ptr %9, align 4, !tbaa !10
  br label %lean_array_uget.exit

16:                                               ; preds = %12
  %.not.i.i = icmp eq i32 %.val.i.i, 0
  br i1 %.not.i.i, label %lean_array_uget.exit, label %17

17:                                               ; preds = %16
  tail call void @lean_inc_ref_cold(ptr noundef nonnull %9) #7
  br label %lean_array_uget.exit

lean_array_uget.exit:                             ; preds = %7, %14, %16, %17
  %18 = getelementptr inbounds nuw i8, ptr %9, i64 8
  %19 = load ptr, ptr %18, align 8, !tbaa !4
  %20 = ptrtoint ptr %19 to i64
  %21 = and i64 %20, 1
  %.not37 = icmp eq i64 %21, 0
  br i1 %.not37, label %22, label %lean_inc.exit24

22:                                               ; preds = %lean_array_uget.exit
  %.val.i = load i32, ptr %19, align 4, !tbaa !10
  %23 = icmp sgt i32 %.val.i, 0
  br i1 %23, label %24, label %26, !prof !13

24:                                               ; preds = %22
  %25 = add nuw i32 %.val.i, 1
  store i32 %25, ptr %19, align 4, !tbaa !10
  br label %lean_inc.exit24

26:                                               ; preds = %22
  %.not.i26 = icmp eq i32 %.val.i, 0
  br i1 %.not.i26, label %lean_inc.exit24, label %27

27:                                               ; preds = %26
  tail call void @lean_inc_ref_cold(ptr noundef nonnull %19) #7
  br label %lean_inc.exit24

lean_inc.exit24:                                  ; preds = %27, %26, %24, %lean_array_uget.exit
  %28 = getelementptr inbounds nuw i8, ptr %9, i64 16
  %29 = load ptr, ptr %28, align 8, !tbaa !4
  %30 = ptrtoint ptr %29 to i64
  %31 = and i64 %30, 1
  %.not38 = icmp eq i64 %31, 0
  br i1 %.not38, label %32, label %lean_inc.exit

32:                                               ; preds = %lean_inc.exit24
  %.val.i27 = load i32, ptr %29, align 4, !tbaa !10
  %33 = icmp sgt i32 %.val.i27, 0
  br i1 %33, label %34, label %36, !prof !13

34:                                               ; preds = %32
  %35 = add nuw i32 %.val.i27, 1
  store i32 %35, ptr %29, align 4, !tbaa !10
  br label %lean_inc.exit

36:                                               ; preds = %32
  %.not.i28 = icmp eq i32 %.val.i27, 0
  br i1 %.not.i28, label %lean_inc.exit, label %37

37:                                               ; preds = %36
  tail call void @lean_inc_ref_cold(ptr noundef nonnull %29) #7
  br label %lean_inc.exit

lean_inc.exit:                                    ; preds = %37, %36, %34, %lean_inc.exit24
  br i1 %.not.i25, label %38, label %lean_dec.exit

38:                                               ; preds = %lean_inc.exit
  %39 = load i32, ptr %9, align 4, !tbaa !10
  %40 = icmp sgt i32 %39, 1
  br i1 %40, label %41, label %43, !prof !13

41:                                               ; preds = %38
  %42 = add nsw i32 %39, -1
  store i32 %42, ptr %9, align 4, !tbaa !10
  br label %lean_dec.exit

43:                                               ; preds = %38
  %.not.i = icmp eq i32 %39, 0
  br i1 %.not.i, label %lean_dec.exit, label %44

44:                                               ; preds = %43
  tail call void @lean_dec_ref_cold(ptr noundef nonnull %9) #7
  br label %lean_dec.exit

lean_dec.exit:                                    ; preds = %44, %43, %41, %lean_inc.exit
  %45 = add i64 %.02042, 1
  %46 = tail call zeroext i8 @l_Lean_RBNode_isRed___rarg(ptr noundef %.02241) #7
  %47 = icmp eq i8 %46, 0
  %48 = tail call ptr @l_Lean_RBNode_ins___at_Lean_Server_FileWorker_WorkerContext_modifyGetPartialHandler___spec__4(ptr noundef %.02241, ptr noundef %19, ptr noundef %29)
  br i1 %47, label %l_Lean_RBNode_insert___at_Lean_Server_FileWorker_WorkerContext_modifyGetPartialHandler___spec__3.exit, label %49

49:                                               ; preds = %lean_dec.exit
  %50 = tail call ptr @l_Lean_RBNode_setBlack___rarg(ptr noundef %48) #7
  br label %l_Lean_RBNode_insert___at_Lean_Server_FileWorker_WorkerContext_modifyGetPartialHandler___spec__3.exit

l_Lean_RBNode_insert___at_Lean_Server_FileWorker_WorkerContext_modifyGetPartialHandler___spec__3.exit: ; preds = %49, %lean_dec.exit
  %.123 = phi ptr [ %50, %49 ], [ %48, %lean_dec.exit ]
  %.not = icmp eq i64 %45, %3
  br i1 %.not, label %._crit_edge, label %7

._crit_edge:                                      ; preds = %l_Lean_RBNode_insert___at_Lean_Server_FileWorker_WorkerContext_modifyGetPartialHandler___spec__3.exit, %5
  %.022.lcssa = phi ptr [ %4, %5 ], [ %.123, %l_Lean_RBNode_insert___at_Lean_Server_FileWorker_WorkerContext_modifyGetPartialHandler___spec__3.exit ]
  ret ptr %.022.lcssa
}